target datalayout = "e-m:e-p270:32:32-p271:32:32-p272:64:64-i64:64-i128:128-f80:128-n8:16:32:64-S128"
target triple = "x86_64-pc-linux-gnu"

%struct.sentinelRedisInstance = type { i32, ptr, ptr, i64, ptr, ptr, i64, i64, i64, i64, i64, i64, i64, i64, i64, ptr, i32, i64, i64, ptr, ptr, i32, i32, ptr, ptr, i64, i32, i32, i64, ptr, ptr, i32, i32, i64, ptr, i64, i64, i32, i64, i64, i64, i64, ptr, ptr, ptr, ptr }

; Function Attrs: nounwind uwtable
define dso_local i32 @compareSlavesForPromotion(ptr noundef %0, ptr noundef %1) #0 {
  %3 = alloca i32, align 4
  %4 = alloca ptr, align 8
  %5 = alloca ptr, align 8
  %6 = alloca ptr, align 8
  %7 = alloca ptr, align 8
  %8 = alloca ptr, align 8
  %9 = alloca ptr, align 8
  %10 = alloca i32, align 4
  store ptr %0, ptr %4, align 8, !tbaa !10
  store ptr %1, ptr %5, align 8, !tbaa !10
  call void @llvm.lifetime.start.p0(i64 8, ptr %6) #16
  %11 = load ptr, ptr %4, align 8, !tbaa !10
  store ptr %11, ptr %6, align 8, !tbaa !311
  call void @llvm.lifetime.start.p0(i64 8, ptr %7) #16
  %12 = load ptr, ptr %5, align 8, !tbaa !10
  store ptr %12, ptr %7, align 8, !tbaa !311
  call void @llvm.lifetime.start.p0(i64 8, ptr %8) #16
  call void @llvm.lifetime.start.p0(i64 8, ptr %9) #16
  %13 = load ptr, ptr %6, align 8, !tbaa !311
  %14 = load ptr, ptr %13, align 8, !tbaa !11
  %15 = getelementptr inbounds nuw %struct.sentinelRedisInstance, ptr %14, i32 0, i32 26
  %16 = load i32, ptr %15, align 8, !tbaa !183
  %17 = load ptr, ptr %7, align 8, !tbaa !311
  %18 = load ptr, ptr %17, align 8, !tbaa !11
  %19 = getelementptr inbounds nuw %struct.sentinelRedisInstance, ptr %18, i32 0, i32 26
  %20 = load i32, ptr %19, align 8, !tbaa !183
  %21 = icmp ne i32 %16, %20
  br i1 %21, label %22, label %32

22:                                               ; preds = %2
  %23 = load ptr, ptr %6, align 8, !tbaa !311
  %24 = load ptr, ptr %23, align 8, !tbaa !11
  %25 = getelementptr inbounds nuw %struct.sentinelRedisInstance, ptr %24, i32 0, i32 26
  %26 = load i32, ptr %25, align 8, !tbaa !183
  %27 = load ptr, ptr %7, align 8, !tbaa !311
  %28 = load ptr, ptr %27, align 8, !tbaa !11
  %29 = getelementptr inbounds nuw %struct.sentinelRedisInstance, ptr %28, i32 0, i32 26
  %30 = load i32, ptr %29, align 8, !tbaa !183
  %31 = sub nsw i32 %26, %30
  store i32 %31, ptr %3, align 4
  store i32 1, ptr %10, align 4
  br label %84

32:                                               ; preds = %2
  %33 = load ptr, ptr %6, align 8, !tbaa !311
  %34 = load ptr, ptr %33, align 8, !tbaa !11
  %35 = getelementptr inbounds nuw %struct.sentinelRedisInstance, ptr %34, i32 0, i32 33
  %36 = load i64, ptr %35, align 8, !tbaa !188
  %37 = load ptr, ptr %7, align 8, !tbaa !311
  %38 = load ptr, ptr %37, align 8, !tbaa !11
  %39 = getelementptr inbounds nuw %struct.sentinelRedisInstance, ptr %38, i32 0, i32 33
  %40 = load i64, ptr %39, align 8, !tbaa !188
  %41 = icmp ugt i64 %36, %40
  br i1 %41, label %42, label %43

42:                                               ; preds = %32
  store i32 -1, ptr %3, align 4
  store i32 1, ptr %10, align 4
  br label %84

43:                                               ; preds = %32
  %44 = load ptr, ptr %6, align 8, !tbaa !311
  %45 = load ptr, ptr %44, align 8, !tbaa !11
  %46 = getelementptr inbounds nuw %struct.sentinelRedisInstance, ptr %45, i32 0, i32 33
  %47 = load i64, ptr %46, align 8, !tbaa !188
  %48 = load ptr, ptr %7, align 8, !tbaa !311
  %49 = load ptr, ptr %48, align 8, !tbaa !11
  %50 = getelementptr inbounds nuw %struct.sentinelRedisInstance, ptr %49, i32 0, i32 33
  %51 = load i64, ptr %50, align 8, !tbaa !188
  %52 = icmp ult i64 %47, %51
  br i1 %52, label %53, label %54

53:                                               ; preds = %43
  store i32 1, ptr %3, align 4
  store i32 1, ptr %10, align 4
  br label %84

54:                                               ; preds = %43
  br label %55

55:                                               ; preds = %54
  %56 = load ptr, ptr %6, align 8, !tbaa !311
  %57 = load ptr, ptr %56, align 8, !tbaa !11
  %58 = getelementptr inbounds nuw %struct.sentinelRedisInstance, ptr %57, i32 0, i32 2
  %59 = load ptr, ptr %58, align 8, !tbaa !24
  store ptr %59, ptr %8, align 8, !tbaa !93
  %60 = load ptr, ptr %7, align 8, !tbaa !311
  %61 = load ptr, ptr %60, align 8, !tbaa !11
  %62 = getelementptr inbounds nuw %struct.sentinelRedisInstance, ptr %61, i32 0, i32 2
  %63 = load ptr, ptr %62, align 8, !tbaa !24
  store ptr %63, ptr %9, align 8, !tbaa !93
  %64 = load ptr, ptr %8, align 8, !tbaa !93
  %65 = icmp eq ptr %64, null
  br i1 %65, label %66, label %70

66:                                               ; preds = %55
  %67 = load ptr, ptr %9, align 8, !tbaa !93
  %68 = icmp eq ptr %67, null
  br i1 %68, label %69, label %70

69:                                               ; preds = %66
  store i32 0, ptr %3, align 4
  store i32 1, ptr %10, align 4
  br label %84

70:                                               ; preds = %66, %55
  %71 = load ptr, ptr %8, align 8, !tbaa !93
  %72 = icmp eq ptr %71, null
  br i1 %72, label %73, label %74

73:                                               ; preds = %70
  store i32 1, ptr %3, align 4
  store i32 1, ptr %10, align 4
  br label %84

74:                                               ; preds = %70
  %75 = load ptr, ptr %9, align 8, !tbaa !93
  %76 = icmp eq ptr %75, null
  br i1 %76, label %77, label %78

77:                                               ; preds = %74
  store i32 -1, ptr %3, align 4
  store i32 1, ptr %10, align 4
  br label %84

78:                                               ; preds = %74
  br label %79

79:                                               ; preds = %78
  br label %80

80:                                               ; preds = %79
  %81 = load ptr, ptr %8, align 8, !tbaa !93
  %82 = load ptr, ptr %9, align 8, !tbaa !93
  %83 = call i32 @strcasecmp(ptr noundef %81, ptr noundef %82) #19
  store i32 %83, ptr %3, align 4
  store i32 1, ptr %10, align 4
  br label %84

84:                                               ; preds = %80, %77, %73, %69, %53, %42, %22
  call void @llvm.lifetime.end.p0(i64 8, ptr %9) #16
  call void @llvm.lifetime.end.p0(i64 8, ptr %8) #16
  call void @llvm.lifetime.end.p0(i64 8, ptr %7) #16
  call void @llvm.lifetime.end.p0(i64 8, ptr %6) #16
  %85 = load i32, ptr %3, align 4
  ret i32 %85
}