; Function Attrs: mustprogress nofree nounwind willreturn memory(read) uwtable
define dso_local i32 @compareSlavesForPromotion(ptr noundef readonly captures(none) %0, ptr noundef readonly captures(none) %1) #10 {
  %3 = load ptr, ptr %0, align 8, !tbaa !279
  %4 = getelementptr inbounds nuw i8, ptr %3, i64 200
  %5 = load i32, ptr %4, align 8, !tbaa !156
  %6 = load ptr, ptr %1, align 8, !tbaa !279
  %7 = getelementptr inbounds nuw i8, ptr %6, i64 200
  %8 = load i32, ptr %7, align 8, !tbaa !156
  %.not = icmp eq i32 %5, %8
  br i1 %.not, label %11, label %9

9:                                                ; preds = %2
  %10 = sub nsw i32 %5, %8
  br label %28

11:                                               ; preds = %2
  %12 = getelementptr inbounds nuw i8, ptr %3, i64 240
  %13 = load i64, ptr %12, align 8, !tbaa !161
  %14 = getelementptr inbounds nuw i8, ptr %6, i64 240
  %15 = load i64, ptr %14, align 8, !tbaa !161
  %16 = icmp ugt i64 %13, %15
  br i1 %16, label %28, label %17

17:                                               ; preds = %11
  %18 = icmp ult i64 %13, %15
  br i1 %18, label %28, label %19

19:                                               ; preds = %17
  %20 = getelementptr inbounds nuw i8, ptr %3, i64 16
  %21 = load ptr, ptr %20, align 8, !tbaa !21
  %22 = getelementptr inbounds nuw i8, ptr %6, i64 16
  %23 = load ptr, ptr %22, align 8, !tbaa !21
  %24 = icmp eq ptr %21, null
  %25 = icmp eq ptr %23, null
  %or.cond = select i1 %24, i1 %25, i1 false
  %not.or.cond = xor i1 %or.cond, true
  %.mux = zext i1 %not.or.cond to i32
  %brmerge25 = select i1 %24, i1 true, i1 %25
  %.mux.mux = select i1 %24, i32 %.mux, i32 -1
  br i1 %brmerge25, label %28, label %26

26:                                               ; preds = %19
  %27 = tail call i32 @strcasecmp(ptr noundef nonnull %21, ptr noundef nonnull %23) #34
  br label %28

28:                                               ; preds = %19, %17, %11, %26, %9
  %.0 = phi i32 [ %10, %9 ], [ %27, %26 ], [ -1, %11 ], [ 1, %17 ], [ %.mux.mux, %19 ]
  ret i32 %.0
}